target datalayout = "e-m:e-p270:32:32-p271:32:32-p272:64:64-i64:64-i128:128-f80:128-n8:16:32:64-S128"
target triple = "x86_64-pc-linux-gnu"

%class.vector.0 = type { ptr }
%class.obj_mark = type { [8 x i8], %class.bit_vector }
%class.bit_vector = type { i32, i32, ptr }
%class.ptr_vector = type { %class.vector.0 }
%"class.subterms::iterator" = type { i8, %class.ptr_vector, ptr, %class.obj_mark, ptr }

@_ZN8subterms8iteratorC1ERKS_P10ptr_vectorI4exprEP8obj_markIS4_10bit_vector14default_t2uintIS4_EEb = hidden unnamed_addr alias void (ptr, ptr, ptr, ptr, i1), ptr @_ZN8subterms8iteratorC2ERKS_P10ptr_vectorI4exprEP8obj_markIS4_10bit_vector14default_t2uintIS4_EEb

; Function Attrs: mustprogress uwtable
define hidden void @_ZNK8subterms3endEv(ptr dead_on_unwind noalias writable sret(%"class.subterms::iterator") align 8 %0, ptr noundef nonnull align 8 dereferenceable(40) %1) #4 align 2 {
  %3 = alloca ptr, align 8
  %4 = alloca ptr, align 8
  store ptr %0, ptr %3, align 8
  store ptr %1, ptr %4, align 8, !tbaa !61
  %5 = load ptr, ptr %4, align 8
  call void @_ZN8subterms8iteratorC1ERKS_P10ptr_vectorI4exprEP8obj_markIS4_10bit_vector14default_t2uintIS4_EEb(ptr noundef nonnull align 8 dereferenceable(56) %0, ptr noundef nonnull align 8 dereferenceable(40) %5, ptr noundef null, ptr noundef null, i1 noundef zeroext false)
  ret void
}