; Function Attrs: mustprogress nofree norecurse nosync nounwind willreturn memory(argmem: readwrite) uwtable
define hidden void @_ZNK8subterms3endEv(ptr dead_on_unwind noalias writable sret(%"class.subterms::iterator") align 8 initializes((0, 1), (8, 16), (32, 48)) %0, ptr noundef nonnull readonly align 8 captures(none) dereferenceable(40) %1) local_unnamed_addr #8 align 2 personality ptr @__gxx_personality_v0 {
  %3 = load i8, ptr %1, align 8, !tbaa !73, !range !91, !noundef !92
  store i8 %3, ptr %0, align 8, !tbaa !93
  %4 = getelementptr inbounds nuw i8, ptr %0, i64 8
  %5 = getelementptr inbounds nuw i8, ptr %0, i64 16
  %6 = getelementptr inbounds nuw i8, ptr %0, i64 24
  %7 = getelementptr inbounds nuw i8, ptr %0, i64 32
  %8 = getelementptr inbounds nuw i8, ptr %0, i64 48
  store i64 0, ptr %4, align 8
  tail call void @llvm.memset.p0.i64(ptr noundef nonnull align 8 dereferenceable(16) %7, i8 0, i64 16, i1 false)
  store ptr %4, ptr %5, align 8, !tbaa !97
  store ptr %6, ptr %8, align 8, !tbaa !98
  ret void
}